; Function Attrs: mustprogress nofree norecurse nosync nounwind willreturn memory(argmem: read) uwtable
define noundef zeroext i1 @_ZNK32pxrInternal_v0_24__pxrReserved__17TsTest_SplineData13ExtrapolationeqERKS1_(ptr nocapture noundef nonnull readonly align 8 dereferenceable(20) %0, ptr nocapture noundef nonnull readonly align 8 dereferenceable(20) %1) local_unnamed_addr #4 align 2 {
  %3 = load i32, ptr %0, align 8
  %4 = load i32, ptr %1, align 8
  %5 = icmp eq i32 %3, %4
  br i1 %5, label %6, label %19

6:                                                ; preds = %2
  switch i32 %3, label %19 [
    i32 2, label %7
    i32 3, label %13
  ]

7:                                                ; preds = %6
  %8 = getelementptr inbounds nuw i8, ptr %0, i64 8
  %9 = load double, ptr %8, align 8
  %10 = getelementptr inbounds nuw i8, ptr %1, i64 8
  %11 = load double, ptr %10, align 8
  %12 = fcmp oeq double %9, %11
  br i1 %12, label %.thread, label %19

.thread:                                          ; preds = %7
  br label %19

13:                                               ; preds = %6
  %14 = getelementptr inbounds nuw i8, ptr %0, i64 16
  %15 = load i32, ptr %14, align 8
  %16 = getelementptr inbounds nuw i8, ptr %1, i64 16
  %17 = load i32, ptr %16, align 8
  %18 = icmp eq i32 %15, %17
  br label %19

19:                                               ; preds = %6, %.thread, %13, %7, %2
  %20 = phi i1 [ false, %7 ], [ false, %2 ], [ %18, %13 ], [ true, %.thread ], [ true, %6 ]
  ret i1 %20
}